; Function Attrs: nounwind uwtable
define noalias ptr @dt_util_longitude_str(float noundef %0) local_unnamed_addr #0 {
  %2 = alloca float, align 4
  call void @llvm.lifetime.start.p0(i64 4, ptr nonnull %2) #27
  %3 = fcmp uno float %0, 0.000000e+00
  br i1 %3, label %13, label %4

4:                                                ; preds = %1
  %5 = fcmp reassoc nsz arcp contract afn olt float %0, 0.000000e+00
  %6 = tail call reassoc nsz arcp contract afn float @llvm.fabs.f32(float %0)
  %.08 = select nsz i1 %5, float %6, float %0
  %.07 = select i1 %5, ptr @.str.12, ptr @.str.11
  %7 = call reassoc nsz arcp contract afn float @modff(float noundef %.08, ptr noundef nonnull %2) #27
  %8 = load float, ptr %2, align 4, !tbaa !84
  %9 = fptosi float %8 to i32
  %10 = fpext reassoc nsz arcp contract afn float %7 to double
  %11 = fmul reassoc nsz arcp contract afn double %10, 6.000000e+01
  %12 = tail call noalias ptr (ptr, ...) @g_strdup_printf(ptr noundef nonnull @.str.13, ptr noundef nonnull %.07, i32 noundef %9, double noundef %11) #27
  br label %13

13:                                               ; preds = %1, %4
  %.0 = phi ptr [ %12, %4 ], [ null, %1 ]
  call void @llvm.lifetime.end.p0(i64 4, ptr nonnull %2) #27
  ret ptr %.0
}